target datalayout = "e-m:e-p270:32:32-p271:32:32-p272:64:64-i64:64-i128:128-f80:128-n8:16:32:64-S128"
target triple = "x86_64-pc-linux-gnu"

%struct.JSON_Generator_StateStruct = type { i64, i64, i64, i64, i64, i64, i64, i64, i64, i8, i8, i8, i8 }
%struct.FBufferStruct = type { i32, i64, i64, i64, ptr, i64 }
%struct.RBasic = type { i64, i64 }
%struct.RString = type { %struct.RBasic, i64, %union.anon }
%union.anon = type { %struct.anon.0 }
%struct.anon.0 = type { ptr, %union.anon.1 }
%union.anon.1 = type { i64 }
%struct.rbimpl_size_mul_overflow_tag = type { i8, i64 }

@eNestingError = internal global i64 0, align 8
@i_to_s = internal global i64 0, align 8
@.str.81 = private unnamed_addr constant [25 x i8] c"%li\0B not allowed in JSON\00", align 1
@.str.85 = private unnamed_addr constant [27 x i8] c"nesting of %ld is too deep\00", align 1

; Function Attrs: alwaysinline nounwind
define internal ptr @memcpy.inline(ptr noalias nonnull %0, ptr noalias nonnull %1, i64 %2) #15 {
  %4 = alloca ptr, align 8
  %5 = alloca ptr, align 8
  %6 = alloca i64, align 8
  store ptr %0, ptr %4, align 8, !tbaa !48
  store ptr %1, ptr %5, align 8, !tbaa !48
  store i64 %2, ptr %6, align 8, !tbaa !6
  %7 = load ptr, ptr %4, align 8, !tbaa !48
  %8 = load ptr, ptr %5, align 8, !tbaa !48
  %9 = load i64, ptr %6, align 8, !tbaa !6
  %10 = load ptr, ptr %4, align 8, !tbaa !48
  %11 = call i64 @llvm.objectsize.i64.p0(ptr %10, i1 false, i1 true, i1 false)
  %12 = call ptr @__memcpy_chk(ptr noundef %7, ptr noundef %8, i64 noundef %9, i64 noundef %11) #27
  ret ptr %12
}

; Function Attrs: inlinehint nounwind sspstrong willreturn memory(none) uwtable
define internal { i8, i64 } @rbimpl_size_mul_overflow(i64 noundef %0, i64 noundef %1) #6 {
  %3 = alloca %struct.rbimpl_size_mul_overflow_tag, align 8
  %4 = alloca i64, align 8
  %5 = alloca i64, align 8
  store i64 %0, ptr %4, align 8, !tbaa !6
  store i64 %1, ptr %5, align 8, !tbaa !6
  call void @llvm.memset.p0.i64(ptr align 8 %3, i8 0, i64 16, i1 false)
  %6 = load i64, ptr %4, align 8, !tbaa !6
  %7 = load i64, ptr %5, align 8, !tbaa !6
  %8 = getelementptr inbounds nuw %struct.rbimpl_size_mul_overflow_tag, ptr %3, i32 0, i32 1
  %9 = call { i64, i1 } @llvm.umul.with.overflow.i64(i64 %6, i64 %7)
  %10 = extractvalue { i64, i1 } %9, 1
  %11 = extractvalue { i64, i1 } %9, 0
  store i64 %11, ptr %8, align 8
  %12 = getelementptr inbounds nuw %struct.rbimpl_size_mul_overflow_tag, ptr %3, i32 0, i32 0
  %13 = zext i1 %10 to i8
  store i8 %13, ptr %12, align 8, !tbaa !53
  %14 = load { i8, i64 }, ptr %3, align 8
  ret { i8, i64 } %14
}

; Function Attrs: inlinehint nounwind sspstrong memory(argmem: readwrite, inaccessiblemem: readwrite) uwtable
define internal nonnull ptr @ruby_nonempty_memcpy(ptr noundef nonnull %0, ptr noundef %1, i64 noundef %2) #14 {
  %4 = alloca ptr, align 8
  %5 = alloca ptr, align 8
  %6 = alloca ptr, align 8
  %7 = alloca i64, align 8
  store ptr %0, ptr %5, align 8, !tbaa !48
  store ptr %1, ptr %6, align 8, !tbaa !48
  store i64 %2, ptr %7, align 8, !tbaa !6
  %8 = load i64, ptr %7, align 8, !tbaa !6
  %9 = icmp ne i64 %8, 0
  br i1 %9, label %10, label %15

10:                                               ; preds = %3
  %11 = load ptr, ptr %5, align 8, !tbaa !48
  %12 = load ptr, ptr %6, align 8, !tbaa !48
  %13 = load i64, ptr %7, align 8, !tbaa !6
  %14 = call ptr @memcpy.inline(ptr noundef %11, ptr noundef %12, i64 noundef %13) #27
  store ptr %14, ptr %4, align 8
  br label %17

15:                                               ; preds = %3
  %16 = load ptr, ptr %5, align 8, !tbaa !48
  store ptr %16, ptr %4, align 8
  br label %17

17:                                               ; preds = %15, %10
  %18 = load ptr, ptr %4, align 8
  ret ptr %18
}

; Function Attrs: inlinehint nounwind sspstrong uwtable
define internal i64 @rbimpl_size_mul_or_raise(i64 noundef %0, i64 noundef %1) #4 {
  %3 = alloca i64, align 8
  %4 = alloca i64, align 8
  %5 = alloca %struct.rbimpl_size_mul_overflow_tag, align 8
  store i64 %0, ptr %3, align 8, !tbaa !6
  store i64 %1, ptr %4, align 8, !tbaa !6
  call void @llvm.lifetime.start.p0(i64 16, ptr %5) #27
  %6 = load i64, ptr %3, align 8, !tbaa !6
  %7 = load i64, ptr %4, align 8, !tbaa !6
  %8 = call { i8, i64 } @rbimpl_size_mul_overflow(i64 noundef %6, i64 noundef %7) #28
  %9 = getelementptr inbounds nuw { i8, i64 }, ptr %5, i32 0, i32 0
  %10 = extractvalue { i8, i64 } %8, 0
  store i8 %10, ptr %9, align 8
  %11 = getelementptr inbounds nuw { i8, i64 }, ptr %5, i32 0, i32 1
  %12 = extractvalue { i8, i64 } %8, 1
  store i64 %12, ptr %11, align 8
  %13 = getelementptr inbounds nuw %struct.rbimpl_size_mul_overflow_tag, ptr %5, i32 0, i32 0
  %14 = load i8, ptr %13, align 8, !tbaa !53, !range !27, !noundef !28
  %15 = trunc i8 %14 to i1
  %16 = xor i1 %15, true
  %17 = xor i1 %16, true
  %18 = xor i1 %17, true
  %19 = zext i1 %18 to i32
  %20 = sext i32 %19 to i64
  %21 = call i64 @llvm.expect.i64(i64 %20, i64 1)
  %22 = icmp ne i64 %21, 0
  br i1 %22, label %23, label %26

23:                                               ; preds = %2
  %24 = getelementptr inbounds nuw %struct.rbimpl_size_mul_overflow_tag, ptr %5, i32 0, i32 1
  %25 = load i64, ptr %24, align 8, !tbaa !55
  call void @llvm.lifetime.end.p0(i64 16, ptr %5) #27
  ret i64 %25

26:                                               ; preds = %2
  %27 = load i64, ptr %3, align 8, !tbaa !6
  %28 = load i64, ptr %4, align 8, !tbaa !6
  call void @ruby_malloc_size_overflow(i64 noundef %27, i64 noundef %28) #30
  unreachable
}

; Function Attrs: inlinehint nounwind sspstrong uwtable
define internal void @fbuffer_inc_capa(ptr noundef %0, i64 noundef %1) #4 {
  %3 = alloca ptr, align 8
  %4 = alloca i64, align 8
  store ptr %0, ptr %3, align 8, !tbaa !57
  store i64 %1, ptr %4, align 8, !tbaa !6
  %5 = load i64, ptr %4, align 8, !tbaa !6
  %6 = load ptr, ptr %3, align 8, !tbaa !57
  %7 = getelementptr inbounds nuw %struct.FBufferStruct, ptr %6, i32 0, i32 3
  %8 = load i64, ptr %7, align 8, !tbaa !64
  %9 = load ptr, ptr %3, align 8, !tbaa !57
  %10 = getelementptr inbounds nuw %struct.FBufferStruct, ptr %9, i32 0, i32 2
  %11 = load i64, ptr %10, align 8, !tbaa !65
  %12 = sub i64 %8, %11
  %13 = icmp ugt i64 %5, %12
  %14 = xor i1 %13, true
  %15 = xor i1 %14, true
  %16 = zext i1 %15 to i32
  %17 = sext i32 %16 to i64
  %18 = call i64 @llvm.expect.i64(i64 %17, i64 0)
  %19 = icmp ne i64 %18, 0
  br i1 %19, label %20, label %23

20:                                               ; preds = %2
  %21 = load ptr, ptr %3, align 8, !tbaa !57
  %22 = load i64, ptr %4, align 8, !tbaa !6
  call void @fbuffer_do_inc_capa(ptr noundef %21, i64 noundef %22)
  br label %23

23:                                               ; preds = %20, %2
  ret void
}

; Function Attrs: nounwind sspstrong uwtable
define internal void @fbuffer_append(ptr noundef %0, ptr noundef %1, i64 noundef %2) #0 {
  %4 = alloca ptr, align 8
  %5 = alloca ptr, align 8
  %6 = alloca i64, align 8
  store ptr %0, ptr %4, align 8, !tbaa !57
  store ptr %1, ptr %5, align 8, !tbaa !56
  store i64 %2, ptr %6, align 8, !tbaa !6
  %7 = load i64, ptr %6, align 8, !tbaa !6
  %8 = icmp ugt i64 %7, 0
  br i1 %8, label %9, label %28

9:                                                ; preds = %3
  %10 = load ptr, ptr %4, align 8, !tbaa !57
  %11 = load i64, ptr %6, align 8, !tbaa !6
  call void @fbuffer_inc_capa(ptr noundef %10, i64 noundef %11)
  %12 = load ptr, ptr %4, align 8, !tbaa !57
  %13 = getelementptr inbounds nuw %struct.FBufferStruct, ptr %12, i32 0, i32 4
  %14 = load ptr, ptr %13, align 8, !tbaa !63
  %15 = load ptr, ptr %4, align 8, !tbaa !57
  %16 = getelementptr inbounds nuw %struct.FBufferStruct, ptr %15, i32 0, i32 2
  %17 = load i64, ptr %16, align 8, !tbaa !65
  %18 = getelementptr inbounds nuw i8, ptr %14, i64 %17
  %19 = load ptr, ptr %5, align 8, !tbaa !56
  %20 = load i64, ptr %6, align 8, !tbaa !6
  %21 = call i64 @rbimpl_size_mul_or_raise(i64 noundef 1, i64 noundef %20)
  %22 = call nonnull ptr @ruby_nonempty_memcpy(ptr noundef %18, ptr noundef %19, i64 noundef %21) #31
  %23 = load i64, ptr %6, align 8, !tbaa !6
  %24 = load ptr, ptr %4, align 8, !tbaa !57
  %25 = getelementptr inbounds nuw %struct.FBufferStruct, ptr %24, i32 0, i32 2
  %26 = load i64, ptr %25, align 8, !tbaa !65
  %27 = add i64 %26, %23
  store i64 %27, ptr %25, align 8, !tbaa !65
  br label %28

28:                                               ; preds = %9, %3
  ret void
}

; Function Attrs: inlinehint nounwind sspstrong willreturn memory(read) uwtable
define internal i64 @RSTRING_LEN(i64 noundef %0) #9 {
  %2 = alloca i64, align 8
  store i64 %0, ptr %2, align 8, !tbaa !6
  %3 = load i64, ptr %2, align 8, !tbaa !6
  %4 = inttoptr i64 %3 to ptr
  %5 = getelementptr inbounds nuw %struct.RString, ptr %4, i32 0, i32 1
  %6 = load i64, ptr %5, align 8, !tbaa !51
  ret i64 %6
}

; Function Attrs: nounwind sspstrong uwtable
define internal void @fbuffer_append_str(ptr noundef %0, i64 noundef %1) #0 {
  %3 = alloca ptr, align 8
  %4 = alloca i64, align 8
  %5 = alloca ptr, align 8
  %6 = alloca i64, align 8
  %7 = alloca ptr, align 8
  %8 = alloca ptr, align 8
  store ptr %0, ptr %3, align 8, !tbaa !57
  store i64 %1, ptr %4, align 8, !tbaa !6
  call void @llvm.lifetime.start.p0(i64 8, ptr %5) #27
  %9 = call ptr @rb_string_value_ptr(ptr noundef %4)
  store ptr %9, ptr %5, align 8, !tbaa !56
  call void @llvm.lifetime.start.p0(i64 8, ptr %6) #27
  %10 = load i64, ptr %4, align 8, !tbaa !6
  %11 = call i64 @RSTRING_LEN(i64 noundef %10) #32
  store i64 %11, ptr %6, align 8, !tbaa !6
  call void @llvm.lifetime.start.p0(i64 8, ptr %7) #27
  store ptr %4, ptr %7, align 8, !tbaa !15
  call void asm sideeffect "", "*m,~{dirflag},~{fpsr},~{flags}"(ptr elementtype(ptr) %7) #27, !srcloc !78
  %12 = load ptr, ptr %7, align 8, !tbaa !15
  store ptr %12, ptr %8, align 8, !tbaa !15
  call void @llvm.lifetime.end.p0(i64 8, ptr %7) #27
  %13 = load ptr, ptr %8, align 8, !tbaa !15
  %14 = load volatile i64, ptr %13, align 8, !tbaa !6
  %15 = load ptr, ptr %3, align 8, !tbaa !57
  %16 = load ptr, ptr %5, align 8, !tbaa !56
  %17 = load i64, ptr %6, align 8, !tbaa !6
  call void @fbuffer_append(ptr noundef %15, ptr noundef %16, i64 noundef %17)
  call void @llvm.lifetime.end.p0(i64 8, ptr %6) #27
  call void @llvm.lifetime.end.p0(i64 8, ptr %5) #27
  ret void
}

; Function Attrs: inlinehint nounwind sspstrong uwtable
define internal i64 @increase_depth(ptr noundef %0) #4 {
  %2 = alloca ptr, align 8
  %3 = alloca i64, align 8
  store ptr %0, ptr %2, align 8, !tbaa !12
  call void @llvm.lifetime.start.p0(i64 8, ptr %3) #27
  %4 = load ptr, ptr %2, align 8, !tbaa !12
  %5 = getelementptr inbounds nuw %struct.JSON_Generator_StateStruct, ptr %4, i32 0, i32 7
  %6 = load i64, ptr %5, align 8, !tbaa !32
  %7 = add nsw i64 %6, 1
  store i64 %7, ptr %5, align 8, !tbaa !32
  store i64 %7, ptr %3, align 8, !tbaa !6
  %8 = load i64, ptr %3, align 8, !tbaa !6
  %9 = load ptr, ptr %2, align 8, !tbaa !12
  %10 = getelementptr inbounds nuw %struct.JSON_Generator_StateStruct, ptr %9, i32 0, i32 6
  %11 = load i64, ptr %10, align 8, !tbaa !25
  %12 = icmp sgt i64 %8, %11
  br i1 %12, label %13, label %18

13:                                               ; preds = %1
  %14 = load ptr, ptr %2, align 8, !tbaa !12
  %15 = getelementptr inbounds nuw %struct.JSON_Generator_StateStruct, ptr %14, i32 0, i32 6
  %16 = load i64, ptr %15, align 8, !tbaa !25
  %17 = icmp ne i64 %16, 0
  br label %18

18:                                               ; preds = %13, %1
  %19 = phi i1 [ false, %1 ], [ %17, %13 ]
  %20 = xor i1 %19, true
  %21 = xor i1 %20, true
  %22 = zext i1 %21 to i32
  %23 = sext i32 %22 to i64
  %24 = call i64 @llvm.expect.i64(i64 %23, i64 0)
  %25 = icmp ne i64 %24, 0
  br i1 %25, label %26, label %32

26:                                               ; preds = %18
  %27 = load i64, ptr @eNestingError, align 8, !tbaa !6
  %28 = load ptr, ptr %2, align 8, !tbaa !12
  %29 = getelementptr inbounds nuw %struct.JSON_Generator_StateStruct, ptr %28, i32 0, i32 7
  %30 = load i64, ptr %29, align 8, !tbaa !32
  %31 = add nsw i64 %30, -1
  store i64 %31, ptr %29, align 8, !tbaa !32
  call void (i64, ptr, ...) @rb_raise(i64 noundef %27, ptr noundef @.str.85, i64 noundef %31) #30
  unreachable

32:                                               ; preds = %18
  %33 = load i64, ptr %3, align 8, !tbaa !6
  call void @llvm.lifetime.end.p0(i64 8, ptr %3) #27
  ret i64 %33
}

; Function Attrs: nounwind sspstrong uwtable
define internal void @generate_json_float(ptr noundef %0, ptr noundef %1, ptr noundef %2, i64 noundef %3) #0 {
  %5 = alloca ptr, align 8
  %6 = alloca ptr, align 8
  %7 = alloca ptr, align 8
  %8 = alloca i64, align 8
  %9 = alloca double, align 8
  %10 = alloca i8, align 1
  %11 = alloca i64, align 8
  %12 = alloca i32, align 4
  store ptr %0, ptr %5, align 8, !tbaa !57
  store ptr %1, ptr %6, align 8, !tbaa !58
  store ptr %2, ptr %7, align 8, !tbaa !12
  store i64 %3, ptr %8, align 8, !tbaa !6
  call void @llvm.lifetime.start.p0(i64 8, ptr %9) #27
  %13 = load i64, ptr %8, align 8, !tbaa !6
  %14 = call double @rb_float_value(i64 noundef %13) #32
  store double %14, ptr %9, align 8, !tbaa !66
  call void @llvm.lifetime.start.p0(i64 1, ptr %10) #27
  %15 = load ptr, ptr %7, align 8, !tbaa !12
  %16 = getelementptr inbounds nuw %struct.JSON_Generator_StateStruct, ptr %15, i32 0, i32 9
  %17 = load i8, ptr %16, align 8, !tbaa !30, !range !27, !noundef !28
  %18 = trunc i8 %17 to i1
  %19 = zext i1 %18 to i8
  store i8 %19, ptr %10, align 1, !tbaa !68
  %20 = load i8, ptr %10, align 1, !tbaa !68
  %21 = icmp ne i8 %20, 0
  br i1 %21, label %73, label %22

22:                                               ; preds = %4
  %23 = load double, ptr %9, align 8, !tbaa !66
  %24 = call double @llvm.fabs.f64(double %23) #34
  %25 = fcmp oeq double %24, 0x7FF0000000000000
  %26 = bitcast double %23 to i64
  %27 = icmp slt i64 %26, 0
  %28 = select i1 %27, i32 -1, i32 1
  %29 = select i1 %25, i32 %28, i32 0
  %30 = icmp ne i32 %29, 0
  br i1 %30, label %34, label %31

31:                                               ; preds = %22
  %32 = load double, ptr %9, align 8, !tbaa !66
  %33 = call i1 @llvm.is.fpclass.f64(double %32, i32 3)
  br i1 %33, label %34, label %72

34:                                               ; preds = %31, %22
  %35 = load ptr, ptr %7, align 8, !tbaa !12
  %36 = getelementptr inbounds nuw %struct.JSON_Generator_StateStruct, ptr %35, i32 0, i32 12
  %37 = load i8, ptr %36, align 1, !tbaa !29, !range !27, !noundef !28
  %38 = trunc i8 %37 to i1
  br i1 %38, label %39, label %67

39:                                               ; preds = %34
  %40 = load ptr, ptr %7, align 8, !tbaa !12
  %41 = getelementptr inbounds nuw %struct.JSON_Generator_StateStruct, ptr %40, i32 0, i32 5
  %42 = load i64, ptr %41, align 8, !tbaa !24
  %43 = icmp ne i64 %42, 0
  br i1 %43, label %44, label %67

44:                                               ; preds = %39
  call void @llvm.lifetime.start.p0(i64 8, ptr %11) #27
  %45 = load ptr, ptr %7, align 8, !tbaa !12
  %46 = getelementptr inbounds nuw %struct.JSON_Generator_StateStruct, ptr %45, i32 0, i32 5
  %47 = load i64, ptr %46, align 8, !tbaa !24
  %48 = call i64 @rb_proc_call_with_block(i64 noundef %47, i32 noundef 1, ptr noundef %8, i64 noundef 4)
  store i64 %48, ptr %11, align 8, !tbaa !6
  %49 = load i64, ptr %11, align 8, !tbaa !6
  %50 = load i64, ptr %8, align 8, !tbaa !6
  %51 = icmp ne i64 %49, %50
  br i1 %51, label %52, label %63

52:                                               ; preds = %44
  %53 = load ptr, ptr %7, align 8, !tbaa !12
  %54 = call i64 @increase_depth(ptr noundef %53)
  %55 = load ptr, ptr %5, align 8, !tbaa !57
  %56 = load ptr, ptr %6, align 8, !tbaa !58
  %57 = load ptr, ptr %7, align 8, !tbaa !12
  %58 = load i64, ptr %11, align 8, !tbaa !6
  call void @generate_json(ptr noundef %55, ptr noundef %56, ptr noundef %57, i64 noundef %58)
  %59 = load ptr, ptr %7, align 8, !tbaa !12
  %60 = getelementptr inbounds nuw %struct.JSON_Generator_StateStruct, ptr %59, i32 0, i32 7
  %61 = load i64, ptr %60, align 8, !tbaa !32
  %62 = add nsw i64 %61, -1
  store i64 %62, ptr %60, align 8, !tbaa !32
  store i32 1, ptr %12, align 4
  br label %64

63:                                               ; preds = %44
  store i32 0, ptr %12, align 4
  br label %64

64:                                               ; preds = %63, %52
  call void @llvm.lifetime.end.p0(i64 8, ptr %11) #27
  %65 = load i32, ptr %12, align 4
  switch i32 %65, label %78 [
    i32 0, label %66
  ]

66:                                               ; preds = %64
  br label %67

67:                                               ; preds = %66, %39, %34
  %68 = load i64, ptr %8, align 8, !tbaa !6
  %69 = load i64, ptr %8, align 8, !tbaa !6
  %70 = load i64, ptr @i_to_s, align 8, !tbaa !6
  %71 = call i64 (i64, i64, i32, ...) @rb_funcall(i64 noundef %69, i64 noundef %70, i32 noundef 0)
  call void (i64, ptr, ...) @raise_generator_error(i64 noundef %68, ptr noundef @.str.81, i64 noundef %71) #30
  unreachable

72:                                               ; preds = %31
  br label %73

73:                                               ; preds = %72, %4
  %74 = load ptr, ptr %5, align 8, !tbaa !57
  %75 = load i64, ptr %8, align 8, !tbaa !6
  %76 = load i64, ptr @i_to_s, align 8, !tbaa !6
  %77 = call i64 (i64, i64, i32, ...) @rb_funcall(i64 noundef %75, i64 noundef %76, i32 noundef 0)
  call void @fbuffer_append_str(ptr noundef %74, i64 noundef %77)
  store i32 0, ptr %12, align 4
  br label %78

78:                                               ; preds = %73, %64
  call void @llvm.lifetime.end.p0(i64 1, ptr %10) #27
  call void @llvm.lifetime.end.p0(i64 8, ptr %9) #27
  %79 = load i32, ptr %12, align 4
  switch i32 %79, label %81 [
    i32 0, label %80
    i32 1, label %80
  ]

80:                                               ; preds = %78, %78
  ret void

81:                                               ; preds = %78
  unreachable
}