; Function Attrs: nounwind sspstrong uwtable
define internal void @generate_json_float(ptr noundef %0, ptr noundef %1, ptr noundef captures(none) %2, i64 noundef %3) #0 {
  %5 = alloca i64, align 8
  %6 = alloca ptr, align 8
  %7 = alloca i64, align 8
  store i64 %3, ptr %7, align 8, !tbaa !6
  %8 = getelementptr inbounds nuw i8, ptr %2, i64 72
  %9 = load i8, ptr %8, align 8, !tbaa !37, !range !34, !noundef !35
  %10 = trunc nuw i8 %9 to i1
  br i1 %10, label %38, label %11

11:                                               ; preds = %4
  %12 = tail call double @rb_float_value(i64 noundef %3) #27
  %13 = tail call double @llvm.fabs.f64(double %12)
  %or.cond = fcmp ueq double %13, 0x7FF0000000000000
  br i1 %or.cond, label %14, label %38

14:                                               ; preds = %11
  %15 = getelementptr inbounds nuw i8, ptr %2, i64 75
  %16 = load i8, ptr %15, align 1, !tbaa !36, !range !34, !noundef !35
  %17 = trunc nuw i8 %16 to i1
  br i1 %17, label %18, label %.critedge

18:                                               ; preds = %14
  %19 = getelementptr inbounds nuw i8, ptr %2, i64 40
  %20 = load i64, ptr %19, align 8, !tbaa !30
  %.not = icmp eq i64 %20, 0
  br i1 %.not, label %.critedge, label %21

21:                                               ; preds = %18
  %22 = call i64 @rb_proc_call_with_block(i64 noundef %20, i32 noundef 1, ptr noundef nonnull %7, i64 noundef 4) #22
  %23 = load i64, ptr %7, align 8, !tbaa !6
  %.not17 = icmp eq i64 %22, %23
  br i1 %.not17, label %.critedge, label %24

24:                                               ; preds = %21
  %25 = getelementptr inbounds nuw i8, ptr %2, i64 56
  %26 = load i64, ptr %25, align 8, !tbaa !39
  %27 = add nsw i64 %26, 1
  store i64 %27, ptr %25, align 8, !tbaa !39
  %28 = getelementptr inbounds nuw i8, ptr %2, i64 48
  %29 = load i64, ptr %28, align 8, !tbaa !18
  %.not.i = icmp sge i64 %26, %29
  %30 = icmp ne i64 %29, 0
  %spec.select.i = and i1 %.not.i, %30
  br i1 %spec.select.i, label %31, label %increase_depth.exit, !prof !58

31:                                               ; preds = %24
  %32 = load i64, ptr @eNestingError, align 8, !tbaa !6
  store i64 %26, ptr %25, align 8, !tbaa !39
  call void (i64, ptr, ...) @rb_raise(i64 noundef %32, ptr noundef nonnull @.str.85, i64 noundef %26) #26
  unreachable

increase_depth.exit:                              ; preds = %24
  call void @generate_json(ptr noundef %0, ptr noundef %1, ptr noundef nonnull %2, i64 noundef %22)
  %33 = load i64, ptr %25, align 8, !tbaa !39
  %34 = add nsw i64 %33, -1
  store i64 %34, ptr %25, align 8, !tbaa !39
  br label %62

.critedge:                                        ; preds = %21, %18, %14
  %35 = phi i64 [ %22, %21 ], [ %3, %18 ], [ %3, %14 ]
  %36 = load i64, ptr @i_to_s, align 8, !tbaa !6
  %37 = call i64 (i64, i64, i32, ...) @rb_funcall(i64 noundef %35, i64 noundef %36, i32 noundef 0) #22
  call void (i64, ptr, ...) @raise_generator_error(i64 noundef %35, ptr noundef nonnull @.str.81, i64 noundef %37) #28
  unreachable

38:                                               ; preds = %11, %4
  %39 = load i64, ptr @i_to_s, align 8, !tbaa !6
  %40 = tail call i64 (i64, i64, i32, ...) @rb_funcall(i64 noundef %3, i64 noundef %39, i32 noundef 0) #22
  call void @llvm.lifetime.start.p0(i64 8, ptr nonnull %5)
  store i64 %40, ptr %5, align 8, !tbaa !6
  %41 = call ptr @rb_string_value_ptr(ptr noundef nonnull %5) #22
  %42 = load i64, ptr %5, align 8, !tbaa !6
  %43 = inttoptr i64 %42 to ptr
  %44 = getelementptr inbounds nuw i8, ptr %43, i64 16
  %45 = load i64, ptr %44, align 8, !tbaa !31
  call void @llvm.lifetime.start.p0(i64 8, ptr nonnull %6) #22
  store ptr %5, ptr %6, align 8, !tbaa !61
  call void asm sideeffect "", "*m,~{dirflag},~{fpsr},~{flags}"(ptr nonnull elementtype(ptr) %6) #22, !srcloc !63
  %46 = load ptr, ptr %6, align 8, !tbaa !61
  call void @llvm.lifetime.end.p0(i64 8, ptr nonnull %6) #22
  %47 = load volatile i64, ptr %46, align 8, !tbaa !6
  %.not.i.i = icmp eq i64 %45, 0
  br i1 %.not.i.i, label %fbuffer_append_str.exit, label %48

48:                                               ; preds = %38
  %49 = getelementptr inbounds nuw i8, ptr %0, i64 24
  %50 = load i64, ptr %49, align 8, !tbaa !47
  %51 = getelementptr inbounds nuw i8, ptr %0, i64 16
  %52 = load i64, ptr %51, align 8, !tbaa !56
  %53 = sub i64 %50, %52
  %54 = icmp ugt i64 %45, %53
  br i1 %54, label %55, label %ruby_nonempty_memcpy.exit.i.i, !prof !58

55:                                               ; preds = %48
  call fastcc void @fbuffer_do_inc_capa(ptr noundef nonnull %0, i64 noundef range(i64 1, 0) %45)
  %.pre.i.i = load i64, ptr %51, align 8, !tbaa !56
  br label %ruby_nonempty_memcpy.exit.i.i

ruby_nonempty_memcpy.exit.i.i:                    ; preds = %55, %48
  %56 = phi i64 [ %.pre.i.i, %55 ], [ %52, %48 ]
  %57 = getelementptr inbounds nuw i8, ptr %0, i64 32
  %58 = load ptr, ptr %57, align 8, !tbaa !46
  %59 = getelementptr inbounds nuw i8, ptr %58, i64 %56
  call void @llvm.memcpy.p0.p0.i64(ptr noundef nonnull align 1 %59, ptr noundef nonnull readonly align 1 %41, i64 noundef range(i64 1, 0) %45, i1 noundef false) #22
  %60 = load i64, ptr %51, align 8, !tbaa !56
  %61 = add i64 %60, %45
  store i64 %61, ptr %51, align 8, !tbaa !56
  br label %fbuffer_append_str.exit

fbuffer_append_str.exit:                          ; preds = %38, %ruby_nonempty_memcpy.exit.i.i
  call void @llvm.lifetime.end.p0(i64 8, ptr nonnull %5)
  br label %62

62:                                               ; preds = %increase_depth.exit, %fbuffer_append_str.exit
  ret void
}